; Function Attrs: mustprogress uwtable
define void @_ZNK18FilterMutualGlobal16pythonFilterNameEi(ptr dead_on_unwind noalias nocapture writable writeonly sret(%class.QString) align 8 %0, ptr nocapture noundef nonnull readnone align 8 dereferenceable(80) %1, i32 noundef %2) unnamed_addr #9 align 2 {
  %cond = icmp eq i32 %2, 0
  br i1 %cond, label %4, label %6

4:                                                ; preds = %3
  %5 = tail call noundef ptr @_ZN7QString16fromAscii_helperEPKci(ptr noundef nonnull @.str.10, i32 noundef 43)
  br label %6

6:                                                ; preds = %3, %4
  %storemerge = phi ptr [ %5, %4 ], [ @_ZN10QArrayData11shared_nullE, %3 ]
  store ptr %storemerge, ptr %0, align 8
  ret void
}